; Function Attrs: nounwind uwtable
define ptr @l_Lake_lpad___boxed(ptr noundef %0, ptr noundef %1, ptr noundef %2) local_unnamed_addr #0 {
  %4 = ptrtoint ptr %1 to i64
  %5 = lshr i64 %4, 1
  %6 = trunc i64 %5 to i32
  %7 = and i64 %4, 1
  %.not = icmp eq i64 %7, 0
  br i1 %.not, label %8, label %lean_dec.exit8

8:                                                ; preds = %3
  %9 = load i32, ptr %1, align 4, !tbaa !5
  %10 = icmp sgt i32 %9, 1
  br i1 %10, label %11, label %13, !prof !10

11:                                               ; preds = %8
  %12 = add nsw i32 %9, -1
  store i32 %12, ptr %1, align 4, !tbaa !5
  br label %lean_dec.exit8

13:                                               ; preds = %8
  %.not.i = icmp eq i32 %9, 0
  br i1 %.not.i, label %lean_dec.exit8, label %14

14:                                               ; preds = %13
  tail call void @lean_dec_ref_cold(ptr noundef nonnull %1) #3
  br label %lean_dec.exit8

lean_dec.exit8:                                   ; preds = %14, %13, %11, %3
  %15 = getelementptr i8, ptr %0, i64 24
  %.val.i = load i64, ptr %15, align 8, !tbaa !11
  %16 = ptrtoint ptr %2 to i64
  %17 = and i64 %16, 1
  %.not.i13 = icmp eq i64 %17, 0
  br i1 %.not.i13, label %.critedge.i.i, label %18, !prof !4

18:                                               ; preds = %lean_dec.exit8
  %19 = lshr i64 %16, 1
  %20 = and i64 %.val.i, 9223372036854775807
  %21 = icmp samesign ult i64 %19, %20
  br i1 %21, label %l_Lake_lpad.exit, label %22

22:                                               ; preds = %18
  %23 = sub nuw nsw i64 %19, %20
  %24 = shl nuw i64 %23, 1
  %25 = or disjoint i64 %24, 1
  %26 = inttoptr i64 %25 to ptr
  br label %l_Lake_lpad.exit

.critedge.i.i:                                    ; preds = %lean_dec.exit8
  %27 = shl i64 %.val.i, 1
  %28 = or disjoint i64 %27, 1
  %29 = inttoptr i64 %28 to ptr
  %30 = tail call ptr @lean_nat_big_sub(ptr noundef %2, ptr noundef nonnull %29) #3
  br label %l_Lake_lpad.exit

l_Lake_lpad.exit:                                 ; preds = %18, %22, %.critedge.i.i
  %.1.i.i = phi ptr [ %30, %.critedge.i.i ], [ %26, %22 ], [ inttoptr (i64 1 to ptr), %18 ]
  %31 = load ptr, ptr @l_Lake_lpad___closed__1, align 8, !tbaa !13
  %32 = tail call ptr @l_Nat_repeatTR_loop___at_Lake_lpad___spec__1(i32 noundef %6, ptr noundef %.1.i.i, ptr noundef %31)
  %33 = tail call ptr @lean_string_append(ptr noundef %32, ptr noundef nonnull %0) #3
  br i1 %.not.i13, label %34, label %lean_dec.exit7

34:                                               ; preds = %l_Lake_lpad.exit
  %35 = load i32, ptr %2, align 4, !tbaa !5
  %36 = icmp sgt i32 %35, 1
  br i1 %36, label %37, label %39, !prof !10

37:                                               ; preds = %34
  %38 = add nsw i32 %35, -1
  store i32 %38, ptr %2, align 4, !tbaa !5
  br label %lean_dec.exit7

39:                                               ; preds = %34
  %.not.i9 = icmp eq i32 %35, 0
  br i1 %.not.i9, label %lean_dec.exit7, label %40

40:                                               ; preds = %39
  tail call void @lean_dec_ref_cold(ptr noundef nonnull %2) #3
  br label %lean_dec.exit7

lean_dec.exit7:                                   ; preds = %40, %39, %37, %l_Lake_lpad.exit
  %41 = ptrtoint ptr %0 to i64
  %42 = and i64 %41, 1
  %.not15 = icmp eq i64 %42, 0
  br i1 %.not15, label %43, label %lean_dec.exit

43:                                               ; preds = %lean_dec.exit7
  %44 = load i32, ptr %0, align 4, !tbaa !5
  %45 = icmp sgt i32 %44, 1
  br i1 %45, label %46, label %48, !prof !10

46:                                               ; preds = %43
  %47 = add nsw i32 %44, -1
  store i32 %47, ptr %0, align 4, !tbaa !5
  br label %lean_dec.exit

48:                                               ; preds = %43
  %.not.i11 = icmp eq i32 %44, 0
  br i1 %.not.i11, label %lean_dec.exit, label %49

49:                                               ; preds = %48
  tail call void @lean_dec_ref_cold(ptr noundef nonnull %0) #3
  br label %lean_dec.exit

lean_dec.exit:                                    ; preds = %49, %48, %46, %lean_dec.exit7
  ret ptr %33
}